target datalayout = "e-m:e-p270:32:32-p271:32:32-p272:64:64-i64:64-i128:128-f80:128-n8:16:32:64-S128"
target triple = "x86_64-pc-linux-gnu"

; Function Attrs: mustprogress nounwind uwtable
define noundef i32 @_ZN5RarVM21FilterItanium_GetBitsEPhjj(ptr noundef nonnull align 8 dereferenceable(40) %0, ptr noundef %1, i32 noundef %2, i32 noundef %3) #0 align 2 {
  %5 = alloca ptr, align 8
  %6 = alloca ptr, align 8
  %7 = alloca i32, align 4
  %8 = alloca i32, align 4
  %9 = alloca i32, align 4
  %10 = alloca i32, align 4
  %11 = alloca i32, align 4
  store ptr %0, ptr %5, align 8
  store ptr %1, ptr %6, align 8
  store i32 %2, ptr %7, align 4
  store i32 %3, ptr %8, align 4
  %12 = load i32, ptr %7, align 4
  %13 = udiv i32 %12, 8
  store i32 %13, ptr %9, align 4
  %14 = load i32, ptr %7, align 4
  %15 = and i32 %14, 7
  store i32 %15, ptr %10, align 4
  %16 = load ptr, ptr %6, align 8
  %17 = load i32, ptr %9, align 4
  %18 = add i32 %17, 1
  store i32 %18, ptr %9, align 4
  %19 = zext i32 %17 to i64
  %20 = getelementptr inbounds i8, ptr %16, i64 %19
  %21 = load i8, ptr %20, align 1
  %22 = zext i8 %21 to i32
  store i32 %22, ptr %11, align 4
  %23 = load ptr, ptr %6, align 8
  %24 = load i32, ptr %9, align 4
  %25 = add i32 %24, 1
  store i32 %25, ptr %9, align 4
  %26 = zext i32 %24 to i64
  %27 = getelementptr inbounds i8, ptr %23, i64 %26
  %28 = load i8, ptr %27, align 1
  %29 = zext i8 %28 to i32
  %30 = shl i32 %29, 8
  %31 = load i32, ptr %11, align 4
  %32 = or i32 %31, %30
  store i32 %32, ptr %11, align 4
  %33 = load ptr, ptr %6, align 8
  %34 = load i32, ptr %9, align 4
  %35 = add i32 %34, 1
  store i32 %35, ptr %9, align 4
  %36 = zext i32 %34 to i64
  %37 = getelementptr inbounds i8, ptr %33, i64 %36
  %38 = load i8, ptr %37, align 1
  %39 = zext i8 %38 to i32
  %40 = shl i32 %39, 16
  %41 = load i32, ptr %11, align 4
  %42 = or i32 %41, %40
  store i32 %42, ptr %11, align 4
  %43 = load ptr, ptr %6, align 8
  %44 = load i32, ptr %9, align 4
  %45 = zext i32 %44 to i64
  %46 = getelementptr inbounds i8, ptr %43, i64 %45
  %47 = load i8, ptr %46, align 1
  %48 = zext i8 %47 to i32
  %49 = shl i32 %48, 24
  %50 = load i32, ptr %11, align 4
  %51 = or i32 %50, %49
  store i32 %51, ptr %11, align 4
  %52 = load i32, ptr %10, align 4
  %53 = load i32, ptr %11, align 4
  %54 = lshr i32 %53, %52
  store i32 %54, ptr %11, align 4
  %55 = load i32, ptr %11, align 4
  %56 = load i32, ptr %8, align 4
  %57 = sub i32 32, %56
  %58 = lshr i32 -1, %57
  %59 = and i32 %55, %58
  ret i32 %59
}