; Function Attrs: mustprogress nofree norecurse nosync nounwind willreturn memory(argmem: read) uwtable
define noundef i32 @_ZN5RarVM21FilterItanium_GetBitsEPhjj(ptr nocapture noundef nonnull readnone align 8 dereferenceable(40) %0, ptr nocapture noundef readonly %1, i32 noundef %2, i32 noundef %3) local_unnamed_addr #9 align 2 {
  %5 = lshr i32 %2, 3
  %6 = and i32 %2, 7
  %7 = zext nneg i32 %5 to i64
  %8 = getelementptr inbounds i8, ptr %1, i64 %7
  %9 = load i32, ptr %8, align 1
  %10 = lshr i32 %9, %6
  %11 = sub i32 32, %3
  %12 = lshr i32 -1, %11
  %13 = and i32 %10, %12
  ret i32 %13
}